target datalayout = "e-m:e-p270:32:32-p271:32:32-p272:64:64-i64:64-i128:128-f80:128-n8:16:32:64-S128"
target triple = "x86_64-pc-linux-gnu"

%class.ThreadHeapSampler = type { i64 }
%"struct.Atomic::LoadImpl" = type { i8 }
%"struct.Atomic::PlatformOrderedLoad" = type { i8 }
%class.ScopedFence = type { ptr }
%"struct.Atomic::LoadImpl.0" = type { i8 }
%"struct.Atomic::PlatformLoad" = type { i8 }

@_ZN17ThreadHeapSampler4_rndE = hidden global i64 0, align 8
@_ZN17ThreadHeapSampler18_sampling_intervalE = hidden global i32 524288, align 4
@_ZN11JvmtiExport33_should_post_sampled_object_allocE = external global i8, align 1

; Function Attrs: mustprogress nounwind uwtable
define internal void @_ZL16compiler_barrierv() #1 {
  call void asm sideeffect "", "~{memory},~{dirflag},~{fpsr},~{flags}"() #5, !srcloc !6
  ret void
}

; Function Attrs: mustprogress nounwind uwtable
define linkonce_odr hidden void @_ZN11OrderAccess7acquireEv() #1 comdat align 2 {
  call void @_ZL16compiler_barrierv()
  ret void
}

; Function Attrs: mustprogress nounwind uwtable
define linkonce_odr hidden void @_ZN18ScopedFenceGeneralIL15ScopedFenceType0EE7postfixEv(ptr noundef nonnull align 1 dereferenceable(1) %0) #1 comdat align 2 {
  %2 = alloca ptr, align 8
  store ptr %0, ptr %2, align 8
  call void @_ZN11OrderAccess7acquireEv()
  ret void
}

; Function Attrs: mustprogress nounwind uwtable
define linkonce_odr hidden noundef i32 @_ZNK6Atomic12PlatformLoadILm4EEclIiEET_PVKS3_(ptr noundef nonnull align 1 dereferenceable(1) %0, ptr noundef %1) #1 comdat align 2 {
  %3 = alloca ptr, align 8
  %4 = alloca ptr, align 8
  store ptr %0, ptr %3, align 8
  store ptr %1, ptr %4, align 8
  %5 = load ptr, ptr %4, align 8
  %6 = load volatile i32, ptr %5, align 4
  ret i32 %6
}

; Function Attrs: mustprogress nounwind uwtable
define linkonce_odr hidden void @_ZN18ScopedFenceGeneralIL15ScopedFenceType0EE6prefixEv(ptr noundef nonnull align 1 dereferenceable(1) %0) #1 comdat align 2 {
  %2 = alloca ptr, align 8
  store ptr %0, ptr %2, align 8
  ret void
}

; Function Attrs: mustprogress nounwind uwtable
define linkonce_odr hidden void @_ZN11ScopedFenceIL15ScopedFenceType0EE7postfixEv(ptr noundef nonnull align 8 dereferenceable(8) %0) #1 comdat align 2 {
  %2 = alloca ptr, align 8
  store ptr %0, ptr %2, align 8
  %3 = load ptr, ptr %2, align 8
  call void @_ZN18ScopedFenceGeneralIL15ScopedFenceType0EE7postfixEv(ptr noundef nonnull align 1 dereferenceable(1) %3)
  ret void
}

; Function Attrs: mustprogress nounwind uwtable
define linkonce_odr hidden noundef i32 @_ZNK6Atomic8LoadImplIiNS_12PlatformLoadILm4EEEvEclEPVKi(ptr noundef nonnull align 1 dereferenceable(1) %0, ptr noundef %1) #1 comdat align 2 {
  %3 = alloca ptr, align 8
  %4 = alloca ptr, align 8
  %5 = alloca %"struct.Atomic::PlatformLoad", align 1
  store ptr %0, ptr %3, align 8
  store ptr %1, ptr %4, align 8
  %6 = load ptr, ptr %4, align 8
  %7 = call noundef i32 @_ZNK6Atomic12PlatformLoadILm4EEclIiEET_PVKS3_(ptr noundef nonnull align 1 dereferenceable(1) %5, ptr noundef %6)
  ret i32 %7
}

; Function Attrs: mustprogress nounwind uwtable
define linkonce_odr hidden void @_ZN11ScopedFenceIL15ScopedFenceType0EE6prefixEv(ptr noundef nonnull align 8 dereferenceable(8) %0) #1 comdat align 2 {
  %2 = alloca ptr, align 8
  store ptr %0, ptr %2, align 8
  %3 = load ptr, ptr %2, align 8
  call void @_ZN18ScopedFenceGeneralIL15ScopedFenceType0EE6prefixEv(ptr noundef nonnull align 1 dereferenceable(1) %3)
  ret void
}

; Function Attrs: mustprogress nounwind uwtable
define linkonce_odr hidden void @_ZN11ScopedFenceIL15ScopedFenceType0EED2Ev(ptr noundef nonnull align 8 dereferenceable(8) %0) unnamed_addr #1 comdat align 2 {
  %2 = alloca ptr, align 8
  store ptr %0, ptr %2, align 8
  %3 = load ptr, ptr %2, align 8
  call void @_ZN11ScopedFenceIL15ScopedFenceType0EE7postfixEv(ptr noundef nonnull align 8 dereferenceable(8) %3)
  ret void
}

; Function Attrs: mustprogress nounwind uwtable
define linkonce_odr hidden noundef i32 @_ZN6Atomic4loadIiEET_PVKS1_(ptr noundef %0) #1 comdat align 2 {
  %2 = alloca ptr, align 8
  %3 = alloca %"struct.Atomic::LoadImpl.0", align 1
  store ptr %0, ptr %2, align 8
  %4 = load ptr, ptr %2, align 8
  %5 = call noundef i32 @_ZNK6Atomic8LoadImplIiNS_12PlatformLoadILm4EEEvEclEPVKi(ptr noundef nonnull align 1 dereferenceable(1) %3, ptr noundef %4)
  ret i32 %5
}

; Function Attrs: mustprogress nounwind uwtable
define linkonce_odr hidden void @_ZN11ScopedFenceIL15ScopedFenceType0EEC2EPv(ptr noundef nonnull align 8 dereferenceable(8) %0, ptr noundef %1) unnamed_addr #1 comdat align 2 {
  %3 = alloca ptr, align 8
  %4 = alloca ptr, align 8
  store ptr %0, ptr %3, align 8
  store ptr %1, ptr %4, align 8
  %5 = load ptr, ptr %3, align 8
  %6 = getelementptr inbounds %class.ScopedFence, ptr %5, i32 0, i32 0
  %7 = load ptr, ptr %4, align 8
  store ptr %7, ptr %6, align 8
  call void @_ZN11ScopedFenceIL15ScopedFenceType0EE6prefixEv(ptr noundef nonnull align 8 dereferenceable(8) %5)
  ret void
}

; Function Attrs: mustprogress nounwind uwtable
define linkonce_odr hidden noundef i32 @_ZNK6Atomic19PlatformOrderedLoadILm4EL15ScopedFenceType0EEclIiEET_PVKS4_(ptr noundef nonnull align 1 dereferenceable(1) %0, ptr noundef %1) #1 comdat align 2 {
  %3 = alloca ptr, align 8
  %4 = alloca ptr, align 8
  %5 = alloca %class.ScopedFence, align 8
  store ptr %0, ptr %3, align 8
  store ptr %1, ptr %4, align 8
  %6 = load ptr, ptr %4, align 8
  call void @_ZN11ScopedFenceIL15ScopedFenceType0EEC2EPv(ptr noundef nonnull align 8 dereferenceable(8) %5, ptr noundef %6)
  %7 = load ptr, ptr %4, align 8
  %8 = call noundef i32 @_ZN6Atomic4loadIiEET_PVKS1_(ptr noundef %7)
  call void @_ZN11ScopedFenceIL15ScopedFenceType0EED2Ev(ptr noundef nonnull align 8 dereferenceable(8) %5) #5
  ret i32 %8
}

; Function Attrs: mustprogress nounwind uwtable
define linkonce_odr hidden noundef i32 @_Z12checked_castIjmET_T0_(i64 noundef %0) #1 comdat {
  %2 = alloca i64, align 8
  %3 = alloca i32, align 4
  store i64 %0, ptr %2, align 8
  %4 = load i64, ptr %2, align 8
  %5 = trunc i64 %4 to i32
  store i32 %5, ptr %3, align 4
  %6 = load i32, ptr %3, align 4
  ret i32 %6
}

; Function Attrs: mustprogress nounwind uwtable
define linkonce_odr hidden noundef i32 @_ZNK6Atomic8LoadImplIiNS_19PlatformOrderedLoadILm4EL15ScopedFenceType0EEEvEclEPVKi(ptr noundef nonnull align 1 dereferenceable(1) %0, ptr noundef %1) #1 comdat align 2 {
  %3 = alloca ptr, align 8
  %4 = alloca ptr, align 8
  %5 = alloca %"struct.Atomic::PlatformOrderedLoad", align 1
  store ptr %0, ptr %3, align 8
  store ptr %1, ptr %4, align 8
  %6 = load ptr, ptr %4, align 8
  %7 = call noundef i32 @_ZNK6Atomic19PlatformOrderedLoadILm4EL15ScopedFenceType0EEclIiEET_PVKS4_(ptr noundef nonnull align 1 dereferenceable(1) %5, ptr noundef %6)
  ret i32 %7
}

; Function Attrs: mustprogress nounwind uwtable
define hidden noundef double @_ZN17ThreadHeapSampler9fast_log2ERKd(ptr noundef nonnull align 8 dereferenceable(8) %0) #1 align 2 {
  %2 = alloca ptr, align 8
  %3 = alloca i64, align 8
  %4 = alloca i32, align 4
  %5 = alloca i32, align 4
  %6 = alloca i32, align 4
  store ptr %0, ptr %2, align 8
  store i64 0, ptr %3, align 8
  %7 = load ptr, ptr %2, align 8
  %8 = load i64, ptr %7, align 8
  store i64 %8, ptr %3, align 8
  %9 = load i64, ptr %3, align 8
  %10 = lshr i64 %9, 32
  %11 = call noundef i32 @_Z12checked_castIjmET_T0_(i64 noundef %10)
  store i32 %11, ptr %4, align 4
  %12 = load i32, ptr %4, align 4
  %13 = lshr i32 %12, 10
  %14 = and i32 %13, 1023
  store i32 %14, ptr %5, align 4
  %15 = load i32, ptr %4, align 4
  %16 = lshr i32 %15, 20
  %17 = and i32 %16, 2047
  %18 = sub i32 %17, 1023
  store i32 %18, ptr %6, align 4
  %19 = load i32, ptr %6, align 4
  %20 = sitofp i32 %19 to double
  %21 = load i32, ptr %5, align 4
  %22 = zext i32 %21 to i64
  %23 = getelementptr inbounds [1024 x double], ptr @_ZL9log_table, i64 0, i64 %22
  %24 = load double, ptr %23, align 8
  %25 = fadd double %20, %24
  ret double %25
}

; Function Attrs: mustprogress nounwind uwtable
define hidden noundef i64 @_ZN17ThreadHeapSampler11next_randomEm(ptr noundef nonnull align 8 dereferenceable(8) %0, i64 noundef %1) #1 align 2 {
  %3 = alloca ptr, align 8
  %4 = alloca i64, align 8
  %5 = alloca i64, align 8
  %6 = alloca i64, align 8
  %7 = alloca i64, align 8
  %8 = alloca i64, align 8
  store ptr %0, ptr %3, align 8
  store i64 %1, ptr %4, align 8
  store i64 25214903917, ptr %5, align 8
  store i64 11, ptr %6, align 8
  store i64 48, ptr %7, align 8
  store i64 281474976710655, ptr %8, align 8
  %9 = load i64, ptr %4, align 8
  %10 = mul i64 25214903917, %9
  %11 = add i64 %10, 11
  %12 = and i64 %11, 281474976710655
  ret i64 %12
}

; Function Attrs: mustprogress nounwind uwtable
define linkonce_odr hidden noundef i32 @_ZN6Atomic12load_acquireIiEET_PVKS1_(ptr noundef %0) #1 comdat align 2 {
  %2 = alloca ptr, align 8
  %3 = alloca %"struct.Atomic::LoadImpl", align 1
  store ptr %0, ptr %2, align 8
  %4 = load ptr, ptr %2, align 8
  %5 = call noundef i32 @_ZNK6Atomic8LoadImplIiNS_19PlatformOrderedLoadILm4EL15ScopedFenceType0EEEvEclEPVKi(ptr noundef nonnull align 1 dereferenceable(1) %3, ptr noundef %4)
  ret i32 %5
}

; Function Attrs: mustprogress nounwind uwtable
define hidden void @_ZN17ThreadHeapSampler26pick_next_geometric_sampleEv(ptr noundef nonnull align 8 dereferenceable(8) %0) #1 align 2 {
  %2 = alloca ptr, align 8
  %3 = alloca i64, align 8
  %4 = alloca double, align 8
  %5 = alloca double, align 8
  %6 = alloca double, align 8
  %7 = alloca i64, align 8
  store ptr %0, ptr %2, align 8
  %8 = load ptr, ptr %2, align 8
  %9 = load i64, ptr @_ZN17ThreadHeapSampler4_rndE, align 8
  %10 = call noundef i64 @_ZN17ThreadHeapSampler11next_randomEm(ptr noundef nonnull align 8 dereferenceable(8) %8, i64 noundef %9)
  store i64 %10, ptr @_ZN17ThreadHeapSampler4_rndE, align 8
  store i64 48, ptr %3, align 8
  %11 = load i64, ptr @_ZN17ThreadHeapSampler4_rndE, align 8
  %12 = lshr i64 %11, 22
  %13 = trunc i64 %12 to i32
  %14 = uitofp i32 %13 to double
  %15 = fadd double %14, 1.000000e+00
  store double %15, ptr %4, align 8
  %16 = call noundef double @_ZN17ThreadHeapSampler9fast_log2ERKd(ptr noundef nonnull align 8 dereferenceable(8) %4)
  %17 = fsub double %16, 2.600000e+01
  store double %17, ptr %5, align 8
  %18 = load double, ptr %5, align 8
  %19 = fcmp olt double 0.000000e+00, %18
  br i1 %19, label %20, label %21

20:                                               ; preds = %1
  br label %23

21:                                               ; preds = %1
  %22 = load double, ptr %5, align 8
  br label %23

23:                                               ; preds = %21, %20
  %24 = phi double [ 0.000000e+00, %20 ], [ %22, %21 ]
  %25 = call double @log(double noundef 2.000000e+00) #5
  %26 = fneg double %25
  %27 = call noundef i32 @_ZN17ThreadHeapSampler21get_sampling_intervalEv()
  %28 = sitofp i32 %27 to double
  %29 = fmul double %26, %28
  %30 = call double @llvm.fmuladd.f64(double %24, double %29, double 1.000000e+00)
  store double %30, ptr %6, align 8
  %31 = load double, ptr %6, align 8
  %32 = fptoui double %31 to i64
  store i64 %32, ptr %7, align 8
  %33 = load i64, ptr %7, align 8
  %34 = getelementptr inbounds %class.ThreadHeapSampler, ptr %8, i32 0, i32 0
  store i64 %33, ptr %34, align 8
  ret void
}

; Function Attrs: mustprogress nounwind uwtable
define hidden noundef i32 @_ZN17ThreadHeapSampler21get_sampling_intervalEv() #1 align 2 {
  %1 = call noundef i32 @_ZN6Atomic12load_acquireIiEET_PVKS1_(ptr noundef @_ZN17ThreadHeapSampler18_sampling_intervalE)
  ret i32 %1
}

; Function Attrs: mustprogress nounwind uwtable
define linkonce_odr hidden noundef zeroext i1 @_ZN11JvmtiExport32should_post_sampled_object_allocEv() #1 comdat align 2 {
  %1 = load i8, ptr @_ZN11JvmtiExport33_should_post_sampled_object_allocE, align 1
  %2 = trunc i8 %1 to i1
  ret i1 %2
}

; Function Attrs: mustprogress nounwind uwtable
define hidden void @_ZN17ThreadHeapSampler16pick_next_sampleEm(ptr noundef nonnull align 8 dereferenceable(8) %0, i64 noundef %1) #1 align 2 {
  %3 = alloca ptr, align 8
  %4 = alloca i64, align 8
  store ptr %0, ptr %3, align 8
  store i64 %1, ptr %4, align 8
  %5 = load ptr, ptr %3, align 8
  %6 = call noundef i32 @_ZN17ThreadHeapSampler21get_sampling_intervalEv()
  %7 = icmp eq i32 %6, 0
  br i1 %7, label %8, label %10

8:                                                ; preds = %2
  %9 = getelementptr inbounds %class.ThreadHeapSampler, ptr %5, i32 0, i32 0
  store i64 0, ptr %9, align 8
  br label %11

10:                                               ; preds = %2
  call void @_ZN17ThreadHeapSampler26pick_next_geometric_sampleEv(ptr noundef nonnull align 8 dereferenceable(8) %5)
  br label %11

11:                                               ; preds = %10, %8
  ret void
}

; Function Attrs: mustprogress nounwind uwtable
define linkonce_odr hidden void @_ZN11JvmtiExport36sampled_object_alloc_event_collectorEP7oopDesc(ptr noundef %0) #1 comdat align 2 {
  %2 = alloca ptr, align 8
  store ptr %0, ptr %2, align 8
  %3 = call noundef zeroext i1 @_ZN11JvmtiExport32should_post_sampled_object_allocEv()
  br i1 %3, label %4, label %6

4:                                                ; preds = %1
  %5 = load ptr, ptr %2, align 8
  call void @_ZN11JvmtiExport41record_sampled_internal_object_allocationEP7oopDesc(ptr noundef %5)
  br label %6

6:                                                ; preds = %4, %1
  ret void
}

; Function Attrs: mustprogress nounwind uwtable
define hidden void @_ZN17ThreadHeapSampler18check_for_samplingEP7oopDescmm(ptr noundef nonnull align 8 dereferenceable(8) %0, ptr noundef %1, i64 noundef %2, i64 noundef %3) #1 align 2 {
  %5 = alloca ptr, align 8
  %6 = alloca ptr, align 8
  %7 = alloca i64, align 8
  %8 = alloca i64, align 8
  %9 = alloca i64, align 8
  %10 = alloca i64, align 8
  store ptr %0, ptr %5, align 8
  store ptr %1, ptr %6, align 8
  store i64 %2, ptr %7, align 8
  store i64 %3, ptr %8, align 8
  %11 = load ptr, ptr %5, align 8
  %12 = load i64, ptr %8, align 8
  %13 = load i64, ptr %7, align 8
  %14 = add i64 %12, %13
  store i64 %14, ptr %9, align 8
  %15 = load i64, ptr %9, align 8
  %16 = getelementptr inbounds %class.ThreadHeapSampler, ptr %11, i32 0, i32 0
  %17 = load i64, ptr %16, align 8
  %18 = icmp ult i64 %15, %17
  br i1 %18, label %19, label %24

19:                                               ; preds = %4
  %20 = load i64, ptr %9, align 8
  %21 = getelementptr inbounds %class.ThreadHeapSampler, ptr %11, i32 0, i32 0
  %22 = load i64, ptr %21, align 8
  %23 = sub i64 %22, %20
  store i64 %23, ptr %21, align 8
  br label %31

24:                                               ; preds = %4
  %25 = load ptr, ptr %6, align 8
  call void @_ZN11JvmtiExport36sampled_object_alloc_event_collectorEP7oopDesc(ptr noundef %25)
  %26 = load i64, ptr %9, align 8
  %27 = getelementptr inbounds %class.ThreadHeapSampler, ptr %11, i32 0, i32 0
  %28 = load i64, ptr %27, align 8
  %29 = sub i64 %26, %28
  store i64 %29, ptr %10, align 8
  %30 = load i64, ptr %10, align 8
  call void @_ZN17ThreadHeapSampler16pick_next_sampleEm(ptr noundef nonnull align 8 dereferenceable(8) %11, i64 noundef %30)
  br label %31

31:                                               ; preds = %24, %19
  ret void
}