; Function Attrs: mustprogress nounwind uwtable
define hidden void @_ZN17ThreadHeapSampler18check_for_samplingEP7oopDescmm(ptr nocapture noundef nonnull align 8 dereferenceable(8) %0, ptr noundef %1, i64 noundef %2, i64 noundef %3) local_unnamed_addr #2 align 2 {
  %5 = add i64 %3, %2
  %6 = load i64, ptr %0, align 8
  %7 = icmp ult i64 %5, %6
  br i1 %7, label %8, label %10

8:                                                ; preds = %4
  %9 = sub i64 %6, %5
  br label %_ZN17ThreadHeapSampler16pick_next_sampleEm.exit

10:                                               ; preds = %4
  %11 = load i8, ptr @_ZN11JvmtiExport33_should_post_sampled_object_allocE, align 1
  %12 = trunc i8 %11 to i1
  br i1 %12, label %13, label %_ZN11JvmtiExport36sampled_object_alloc_event_collectorEP7oopDesc.exit

13:                                               ; preds = %10
  tail call void @_ZN11JvmtiExport41record_sampled_internal_object_allocationEP7oopDesc(ptr noundef %1) #5
  br label %_ZN11JvmtiExport36sampled_object_alloc_event_collectorEP7oopDesc.exit

_ZN11JvmtiExport36sampled_object_alloc_event_collectorEP7oopDesc.exit: ; preds = %10, %13
  %14 = load volatile i32, ptr @_ZN17ThreadHeapSampler18_sampling_intervalE, align 4
  tail call void asm sideeffect "", "~{memory},~{dirflag},~{fpsr},~{flags}"() #5, !srcloc !6
  %15 = icmp eq i32 %14, 0
  br i1 %15, label %_ZN17ThreadHeapSampler16pick_next_sampleEm.exit, label %16

16:                                               ; preds = %_ZN11JvmtiExport36sampled_object_alloc_event_collectorEP7oopDesc.exit
  %17 = load i64, ptr @_ZN17ThreadHeapSampler4_rndE, align 8
  %18 = mul i64 %17, 25214903917
  %19 = add i64 %18, 11
  %20 = and i64 %19, 281474976710655
  store i64 %20, ptr @_ZN17ThreadHeapSampler4_rndE, align 8
  %21 = lshr i64 %20, 22
  %22 = trunc nuw nsw i64 %21 to i32
  %23 = add nuw nsw i32 %22, 1
  %24 = uitofp nneg i32 %23 to double
  %25 = bitcast double %24 to i64
  %26 = lshr i64 %25, 42
  %27 = and i64 %26, 1023
  %sum.shift.i.i.i = lshr i64 %25, 52
  %28 = trunc nuw nsw i64 %sum.shift.i.i.i to i32
  %29 = add nsw i32 %28, -1023
  %30 = sitofp i32 %29 to double
  %31 = getelementptr inbounds [1024 x double], ptr @_ZL9log_table, i64 0, i64 %27
  %32 = load double, ptr %31, align 8
  %33 = fadd double %32, %30
  %34 = fadd double %33, -2.600000e+01
  %35 = fcmp ogt double %34, 0.000000e+00
  %36 = select i1 %35, double 0.000000e+00, double %34
  %37 = load volatile i32, ptr @_ZN17ThreadHeapSampler18_sampling_intervalE, align 4
  tail call void asm sideeffect "", "~{memory},~{dirflag},~{fpsr},~{flags}"() #5, !srcloc !6
  %38 = sitofp i32 %37 to double
  %39 = fmul double %38, 0xBFE62E42FEFA39EF
  %40 = tail call double @llvm.fmuladd.f64(double %36, double %39, double 1.000000e+00)
  %41 = fptoui double %40 to i64
  br label %_ZN17ThreadHeapSampler16pick_next_sampleEm.exit

_ZN17ThreadHeapSampler16pick_next_sampleEm.exit:  ; preds = %16, %_ZN11JvmtiExport36sampled_object_alloc_event_collectorEP7oopDesc.exit, %8
  %storemerge = phi i64 [ %9, %8 ], [ %41, %16 ], [ 0, %_ZN11JvmtiExport36sampled_object_alloc_event_collectorEP7oopDesc.exit ]
  store i64 %storemerge, ptr %0, align 8
  ret void
}